; Function Attrs: mustprogress nounwind uwtable
define dso_local noalias noundef nonnull ptr @_ZN4llvm32createMIRAddFSDiscriminatorsPassENS_10sampleprof19FSDiscriminatorPassE(i32 noundef %0) local_unnamed_addr #0 {
  %2 = tail call noalias noundef nonnull dereferenceable(80) ptr @_Znwm(i64 noundef 80) #18
  %3 = getelementptr inbounds nuw i8, ptr %2, i64 8
  store ptr null, ptr %3, align 8
  %4 = getelementptr inbounds nuw i8, ptr %2, i64 16
  store ptr @_ZN4llvm22MIRAddFSDiscriminators2IDE, ptr %4, align 8
  %5 = getelementptr inbounds nuw i8, ptr %2, i64 24
  store i32 2, ptr %5, align 8
  %6 = getelementptr inbounds nuw i8, ptr %2, i64 32
  tail call void @llvm.memset.p0.i64(ptr noundef nonnull align 8 dereferenceable(24) %6, i8 0, i64 24, i1 false)
  store ptr getelementptr inbounds nuw inrange(-16, 176) (i8, ptr @_ZTVN4llvm22MIRAddFSDiscriminatorsE, i64 16), ptr %2, align 8
  %7 = getelementptr inbounds nuw i8, ptr %2, i64 56
  store ptr null, ptr %7, align 8
  %8 = getelementptr inbounds nuw i8, ptr %2, i64 64
  store i32 %0, ptr %8, align 8
  %9 = icmp eq i32 %0, 0
  %10 = mul i32 %0, 6
  %11 = add i32 %10, 2
  %.0.i.i = select i1 %9, i32 0, i32 %11
  %12 = getelementptr inbounds nuw i8, ptr %2, i64 68
  store i32 %.0.i.i, ptr %12, align 4
  %13 = add i32 %10, 7
  %14 = getelementptr inbounds nuw i8, ptr %2, i64 72
  store i32 %13, ptr %14, align 8
  ret ptr %2
}